target datalayout = "e-m:e-p270:32:32-p271:32:32-p272:64:64-i64:64-i128:128-f80:128-n8:16:32:64-S128"
target triple = "x86_64-pc-linux-gnu"

%struct.f1ap_private_data_t = type { i32, i32, i32, i32, ptr, i32, i32, i32, i32, ptr }
%struct.pdcp_nr_info = type { i8, i16, i32, i8, i32, i8, i8, i8, i8, %struct.rohc_info, i8, i16 }
%struct.rohc_info = type { i8, i8, i8, i8, i32, i8, i8, i16, ptr }

@proto_f1ap = internal global i32 0, align 4

; Function Attrs: null_pointer_is_valid sspstrong uwtable
define internal ptr @f1ap_get_private_data(ptr noundef %0) #0 {
  %2 = alloca ptr, align 8
  %3 = alloca ptr, align 8
  store ptr %0, ptr %2, align 8
  call void @llvm.lifetime.start.p0(i64 8, ptr %3) #5
  %4 = call ptr @wmem_file_scope()
  %5 = load ptr, ptr %2, align 8
  %6 = load i32, ptr @proto_f1ap, align 4
  %7 = call ptr @p_get_proto_data(ptr noundef %4, ptr noundef %5, i32 noundef %6, i32 noundef 0)
  store ptr %7, ptr %3, align 8
  %8 = load ptr, ptr %3, align 8
  %9 = icmp ne ptr %8, null
  br i1 %9, label %21, label %10

10:                                               ; preds = %1
  %11 = call ptr @wmem_file_scope()
  %12 = call noalias ptr @wmem_alloc0(ptr noundef %11, i64 noundef 48) #6
  store ptr %12, ptr %3, align 8
  %13 = load ptr, ptr %3, align 8
  %14 = getelementptr inbounds nuw %struct.f1ap_private_data_t, ptr %13, i32 0, i32 6
  store i32 -1, ptr %14, align 4
  %15 = load ptr, ptr %3, align 8
  %16 = getelementptr inbounds nuw %struct.f1ap_private_data_t, ptr %15, i32 0, i32 7
  store i32 1, ptr %16, align 8
  %17 = call ptr @wmem_file_scope()
  %18 = load ptr, ptr %2, align 8
  %19 = load i32, ptr @proto_f1ap, align 4
  %20 = load ptr, ptr %3, align 8
  call void @p_add_proto_data(ptr noundef %17, ptr noundef %18, i32 noundef %19, i32 noundef 0, ptr noundef %20)
  br label %21

21:                                               ; preds = %10, %1
  %22 = load ptr, ptr %3, align 8
  call void @llvm.lifetime.end.p0(i64 8, ptr %3) #5
  ret ptr %22
}

; Function Attrs: null_pointer_is_valid sspstrong uwtable
define internal void @add_nr_pdcp_meta_data(ptr noundef %0, i8 noundef zeroext %1, i8 noundef zeroext %2) #0 {
  %4 = alloca ptr, align 8
  %5 = alloca i8, align 1
  %6 = alloca i8, align 1
  %7 = alloca ptr, align 8
  %8 = alloca i32, align 4
  %9 = alloca ptr, align 8
  store ptr %0, ptr %4, align 8
  store i8 %1, ptr %5, align 1
  store i8 %2, ptr %6, align 1
  call void @llvm.lifetime.start.p0(i64 8, ptr %7) #5
  %10 = load ptr, ptr %4, align 8
  %11 = call ptr @get_pdcp_nr_proto_data(ptr noundef %10)
  %12 = icmp ne ptr %11, null
  br i1 %12, label %13, label %14

13:                                               ; preds = %3
  store i32 1, ptr %8, align 4
  br label %41

14:                                               ; preds = %3
  call void @llvm.lifetime.start.p0(i64 8, ptr %9) #5
  %15 = load ptr, ptr %4, align 8
  %16 = call ptr @f1ap_get_private_data(ptr noundef %15)
  store ptr %16, ptr %9, align 8
  %17 = call ptr @wmem_file_scope()
  %18 = call noalias ptr @wmem_alloc0(ptr noundef %17, i64 noundef 56) #6
  store ptr %18, ptr %7, align 8
  %19 = load i8, ptr %5, align 1
  %20 = load ptr, ptr %7, align 8
  %21 = getelementptr inbounds nuw %struct.pdcp_nr_info, ptr %20, i32 0, i32 0
  store i8 %19, ptr %21, align 8
  %22 = load ptr, ptr %9, align 8
  %23 = getelementptr inbounds nuw %struct.f1ap_private_data_t, ptr %22, i32 0, i32 7
  %24 = load i32, ptr %23, align 8
  %25 = trunc i32 %24 to i16
  %26 = load ptr, ptr %7, align 8
  %27 = getelementptr inbounds nuw %struct.pdcp_nr_info, ptr %26, i32 0, i32 1
  store i16 %25, ptr %27, align 2
  %28 = load ptr, ptr %7, align 8
  %29 = getelementptr inbounds nuw %struct.pdcp_nr_info, ptr %28, i32 0, i32 2
  store i32 1, ptr %29, align 4
  %30 = load i8, ptr %6, align 1
  %31 = load ptr, ptr %7, align 8
  %32 = getelementptr inbounds nuw %struct.pdcp_nr_info, ptr %31, i32 0, i32 3
  store i8 %30, ptr %32, align 8
  %33 = load ptr, ptr %7, align 8
  %34 = getelementptr inbounds nuw %struct.pdcp_nr_info, ptr %33, i32 0, i32 4
  store i32 1, ptr %34, align 4
  %35 = load ptr, ptr %7, align 8
  %36 = getelementptr inbounds nuw %struct.pdcp_nr_info, ptr %35, i32 0, i32 5
  store i8 12, ptr %36, align 8
  %37 = load ptr, ptr %7, align 8
  %38 = getelementptr inbounds nuw %struct.pdcp_nr_info, ptr %37, i32 0, i32 6
  store i8 1, ptr %38, align 1
  %39 = load ptr, ptr %4, align 8
  %40 = load ptr, ptr %7, align 8
  call void @set_pdcp_nr_proto_data(ptr noundef %39, ptr noundef %40)
  call void @llvm.lifetime.end.p0(i64 8, ptr %9) #5
  store i32 0, ptr %8, align 4
  br label %41

41:                                               ; preds = %14, %13
  call void @llvm.lifetime.end.p0(i64 8, ptr %7) #5
  %42 = load i32, ptr %8, align 4
  switch i32 %42, label %44 [
    i32 0, label %43
    i32 1, label %43
  ]

43:                                               ; preds = %41, %41
  ret void

44:                                               ; preds = %41
  unreachable
}