; Function Attrs: null_pointer_is_valid sspstrong uwtable
define internal fastcc void @add_nr_pdcp_meta_data(ptr noundef %0, i8 noundef zeroext range(i8 0, 2) %1, i8 noundef zeroext %2) unnamed_addr #0 {
  %4 = tail call ptr @get_pdcp_nr_proto_data(ptr noundef %0)
  %.not = icmp eq ptr %4, null
  br i1 %.not, label %5, label %27

5:                                                ; preds = %3
  %6 = tail call ptr @wmem_file_scope()
  %7 = load i32, ptr @proto_f1ap, align 4
  %8 = tail call ptr @p_get_proto_data(ptr noundef %6, ptr noundef %0, i32 noundef %7, i32 noundef 0)
  %.not.i = icmp eq ptr %8, null
  br i1 %.not.i, label %9, label %f1ap_get_private_data.exit

9:                                                ; preds = %5
  %10 = tail call ptr @wmem_file_scope()
  %11 = tail call noalias dereferenceable_or_null(48) ptr @wmem_alloc0(ptr noundef %10, i64 noundef 48) #7
  %12 = getelementptr inbounds nuw i8, ptr %11, i64 28
  store i32 -1, ptr %12, align 4
  %13 = getelementptr inbounds nuw i8, ptr %11, i64 32
  store i32 1, ptr %13, align 8
  %14 = tail call ptr @wmem_file_scope()
  %15 = load i32, ptr @proto_f1ap, align 4
  tail call void @p_add_proto_data(ptr noundef %14, ptr noundef %0, i32 noundef %15, i32 noundef 0, ptr noundef %11)
  br label %f1ap_get_private_data.exit

f1ap_get_private_data.exit:                       ; preds = %5, %9
  %.0.i = phi ptr [ %8, %5 ], [ %11, %9 ]
  %16 = tail call ptr @wmem_file_scope()
  %17 = tail call noalias dereferenceable_or_null(56) ptr @wmem_alloc0(ptr noundef %16, i64 noundef 56) #7
  store i8 %1, ptr %17, align 8
  %18 = getelementptr inbounds nuw i8, ptr %.0.i, i64 32
  %19 = load i32, ptr %18, align 8
  %20 = trunc i32 %19 to i16
  %21 = getelementptr inbounds nuw i8, ptr %17, i64 2
  store i16 %20, ptr %21, align 2
  %22 = getelementptr inbounds nuw i8, ptr %17, i64 4
  store i32 1, ptr %22, align 4
  %23 = getelementptr inbounds nuw i8, ptr %17, i64 8
  store i8 %2, ptr %23, align 8
  %24 = getelementptr inbounds nuw i8, ptr %17, i64 12
  store i32 1, ptr %24, align 4
  %25 = getelementptr inbounds nuw i8, ptr %17, i64 16
  store i8 12, ptr %25, align 8
  %26 = getelementptr inbounds nuw i8, ptr %17, i64 17
  store i8 1, ptr %26, align 1
  tail call void @set_pdcp_nr_proto_data(ptr noundef %0, ptr noundef %17)
  br label %27

27:                                               ; preds = %3, %f1ap_get_private_data.exit
  ret void
}